; Function Attrs: mustprogress uwtable
define void @_ZN5folly6detail10PerfScopedC2ERKSt6vectorINSt7__cxx1112basic_stringIcSt11char_traitsIcESaIcEEESaIS8_EEPS8_(ptr noundef nonnull writeonly align 8 captures(none) dereferenceable(8) %0, ptr noundef nonnull align 8 dereferenceable(24) %1, ptr noundef %2) unnamed_addr #8 align 2 personality ptr @__gxx_personality_v0 {
  tail call void @llvm.experimental.noalias.scope.decl(metadata !7)
  %4 = tail call noalias noundef nonnull dereferenceable(96) ptr @_Znwm(i64 noundef 96) #22, !noalias !7
  invoke void @_ZN5folly6detail10PerfScoped14PerfScopedImplC2ERKSt6vectorINSt7__cxx1112basic_stringIcSt11char_traitsIcESaIcEEESaIS9_EEPS9_(ptr noundef nonnull align 8 dereferenceable(96) %4, ptr noundef nonnull align 8 dereferenceable(24) %1, ptr noundef %2)
          to label %_ZSt11make_uniqueIN5folly6detail10PerfScoped14PerfScopedImplEJRKSt6vectorINSt7__cxx1112basic_stringIcSt11char_traitsIcESaIcEEESaISA_EERPSA_EENSt8__detail9_MakeUniqIT_E15__single_objectEDpOT0_.exit unwind label %5, !noalias !7

5:                                                ; preds = %3
  %6 = landingpad { ptr, i32 }
          cleanup
  tail call void @_ZdlPvm(ptr noundef nonnull %4, i64 noundef 96) #23, !noalias !7
  resume { ptr, i32 } %6

_ZSt11make_uniqueIN5folly6detail10PerfScoped14PerfScopedImplEJRKSt6vectorINSt7__cxx1112basic_stringIcSt11char_traitsIcESaIcEEESaISA_EERPSA_EENSt8__detail9_MakeUniqIT_E15__single_objectEDpOT0_.exit: ; preds = %3
  store ptr %4, ptr %0, align 8, !tbaa !10, !alias.scope !7
  ret void
}